target datalayout = "e-m:e-p270:32:32-p271:32:32-p272:64:64-i64:64-i128:128-f80:128-n8:16:32:64-S128"
target triple = "x86_64-pc-linux-gnu"

%struct.ItemPointerData = type { %struct.BlockIdData, i16 }
%struct.BlockIdData = type { i16, i16 }
%struct.HeapTupleData = type { i32, %struct.ItemPointerData, i32, ptr }
%struct.ScanKeyData = type { i32, i16, i16, i32, i32, %struct.FmgrInfo, i64 }
%struct.FmgrInfo = type { ptr, i32, i16, i8, i8, i8, ptr, ptr, ptr }

; Function Attrs: inlinehint nounwind uwtable
define internal i64 @ObjectIdGetDatum(i32 noundef %0) #5 {
  %2 = alloca i32, align 4
  store i32 %0, ptr %2, align 4
  %3 = load i32, ptr %2, align 4
  %4 = zext i32 %3 to i64
  ret i64 %4
}

; Function Attrs: nounwind uwtable
define dso_local void @DeleteAttributeTuples(i32 noundef %0) #0 {
  %2 = alloca i32, align 4
  %3 = alloca ptr, align 8
  %4 = alloca ptr, align 8
  %5 = alloca [1 x %struct.ScanKeyData], align 16
  %6 = alloca ptr, align 8
  store i32 %0, ptr %2, align 4
  call void @llvm.lifetime.start.p0(i64 8, ptr %3) #10
  call void @llvm.lifetime.start.p0(i64 8, ptr %4) #10
  call void @llvm.lifetime.start.p0(i64 72, ptr %5) #10
  call void @llvm.lifetime.start.p0(i64 8, ptr %6) #10
  %7 = call ptr @table_open(i32 noundef 1249, i32 noundef 3)
  store ptr %7, ptr %3, align 8
  %8 = getelementptr inbounds [1 x %struct.ScanKeyData], ptr %5, i64 0, i64 0
  %9 = load i32, ptr %2, align 4
  %10 = call i64 @ObjectIdGetDatum(i32 noundef %9)
  call void @ScanKeyInit(ptr noundef %8, i16 noundef signext 1, i16 noundef zeroext 3, i32 noundef 184, i64 noundef %10)
  %11 = load ptr, ptr %3, align 8
  %12 = getelementptr inbounds [1 x %struct.ScanKeyData], ptr %5, i64 0, i64 0
  %13 = call ptr @systable_beginscan(ptr noundef %11, i32 noundef 2659, i1 noundef zeroext true, ptr noundef null, i32 noundef 1, ptr noundef %12)
  store ptr %13, ptr %4, align 8
  br label %14

14:                                               ; preds = %18, %1
  %15 = load ptr, ptr %4, align 8
  %16 = call ptr @systable_getnext(ptr noundef %15)
  store ptr %16, ptr %6, align 8
  %17 = icmp ne ptr %16, null
  br i1 %17, label %18, label %22

18:                                               ; preds = %14
  %19 = load ptr, ptr %3, align 8
  %20 = load ptr, ptr %6, align 8
  %21 = getelementptr inbounds nuw %struct.HeapTupleData, ptr %20, i32 0, i32 1
  call void @CatalogTupleDelete(ptr noundef %19, ptr noundef %21)
  br label %14, !llvm.loop !18

22:                                               ; preds = %14
  %23 = load ptr, ptr %4, align 8
  call void @systable_endscan(ptr noundef %23)
  %24 = load ptr, ptr %3, align 8
  call void @table_close(ptr noundef %24, i32 noundef 3)
  call void @llvm.lifetime.end.p0(i64 8, ptr %6) #10
  call void @llvm.lifetime.end.p0(i64 72, ptr %5) #10
  call void @llvm.lifetime.end.p0(i64 8, ptr %4) #10
  call void @llvm.lifetime.end.p0(i64 8, ptr %3) #10
  ret void
}